target datalayout = "e-m:e-p270:32:32-p271:32:32-p272:64:64-i64:64-i128:128-f80:128-n8:16:32:64-S128"
target triple = "x86_64-pc-linux-gnu"

%struct._generic_SUNMatrix = type { ptr, ptr, ptr }
%struct._SUNMatrixContent_Sparse = type { i64, i64, i64, i64, ptr, i32, ptr, ptr, ptr, ptr, ptr, ptr }

; Function Attrs: nounwind uwtable
define internal i32 @Matvec_SparseCSR(ptr noundef %0, ptr noundef %1, ptr noundef %2) #0 {
  %4 = alloca ptr, align 8
  %5 = alloca ptr, align 8
  %6 = alloca ptr, align 8
  %7 = alloca i64, align 8
  %8 = alloca i64, align 8
  %9 = alloca ptr, align 8
  %10 = alloca ptr, align 8
  %11 = alloca ptr, align 8
  %12 = alloca ptr, align 8
  %13 = alloca ptr, align 8
  %14 = alloca ptr, align 8
  store ptr %0, ptr %4, align 8, !tbaa !12
  store ptr %1, ptr %5, align 8, !tbaa !51
  store ptr %2, ptr %6, align 8, !tbaa !51
  call void @llvm.lifetime.start.p0(i64 8, ptr %7) #8
  call void @llvm.lifetime.start.p0(i64 8, ptr %8) #8
  call void @llvm.lifetime.start.p0(i64 8, ptr %9) #8
  call void @llvm.lifetime.start.p0(i64 8, ptr %10) #8
  call void @llvm.lifetime.start.p0(i64 8, ptr %11) #8
  call void @llvm.lifetime.start.p0(i64 8, ptr %12) #8
  call void @llvm.lifetime.start.p0(i64 8, ptr %13) #8
  call void @llvm.lifetime.start.p0(i64 8, ptr %14) #8
  %15 = load ptr, ptr %4, align 8, !tbaa !12
  %16 = getelementptr inbounds nuw %struct._generic_SUNMatrix, ptr %15, i32 0, i32 2
  %17 = load ptr, ptr %16, align 8, !tbaa !46
  store ptr %17, ptr %14, align 8, !tbaa !9
  %18 = load ptr, ptr %4, align 8, !tbaa !12
  %19 = getelementptr inbounds nuw %struct._generic_SUNMatrix, ptr %18, i32 0, i32 0
  %20 = load ptr, ptr %19, align 8, !tbaa !29
  %21 = getelementptr inbounds nuw %struct._SUNMatrixContent_Sparse, ptr %20, i32 0, i32 7
  %22 = load ptr, ptr %21, align 8, !tbaa !45
  store ptr %22, ptr %9, align 8, !tbaa !49
  %23 = load ptr, ptr %4, align 8, !tbaa !12
  %24 = getelementptr inbounds nuw %struct._generic_SUNMatrix, ptr %23, i32 0, i32 0
  %25 = load ptr, ptr %24, align 8, !tbaa !29
  %26 = getelementptr inbounds nuw %struct._SUNMatrixContent_Sparse, ptr %25, i32 0, i32 6
  %27 = load ptr, ptr %26, align 8, !tbaa !44
  store ptr %27, ptr %10, align 8, !tbaa !49
  %28 = load ptr, ptr %4, align 8, !tbaa !12
  %29 = getelementptr inbounds nuw %struct._generic_SUNMatrix, ptr %28, i32 0, i32 0
  %30 = load ptr, ptr %29, align 8, !tbaa !29
  %31 = getelementptr inbounds nuw %struct._SUNMatrixContent_Sparse, ptr %30, i32 0, i32 4
  %32 = load ptr, ptr %31, align 8, !tbaa !43
  store ptr %32, ptr %11, align 8, !tbaa !50
  %33 = load ptr, ptr %5, align 8, !tbaa !51
  %34 = call ptr @N_VGetArrayPointer(ptr noundef %33)
  store ptr %34, ptr %12, align 8, !tbaa !50
  %35 = load ptr, ptr %6, align 8, !tbaa !51
  %36 = call ptr @N_VGetArrayPointer(ptr noundef %35)
  store ptr %36, ptr %13, align 8, !tbaa !50
  store i64 0, ptr %7, align 8, !tbaa !3
  br label %37

37:                                               ; preds = %49, %3
  %38 = load i64, ptr %7, align 8, !tbaa !3
  %39 = load ptr, ptr %4, align 8, !tbaa !12
  %40 = getelementptr inbounds nuw %struct._generic_SUNMatrix, ptr %39, i32 0, i32 0
  %41 = load ptr, ptr %40, align 8, !tbaa !29
  %42 = getelementptr inbounds nuw %struct._SUNMatrixContent_Sparse, ptr %41, i32 0, i32 0
  %43 = load i64, ptr %42, align 8, !tbaa !35
  %44 = icmp slt i64 %38, %43
  br i1 %44, label %45, label %52

45:                                               ; preds = %37
  %46 = load ptr, ptr %13, align 8, !tbaa !50
  %47 = load i64, ptr %7, align 8, !tbaa !3
  %48 = getelementptr inbounds double, ptr %46, i64 %47
  store double 0.000000e+00, ptr %48, align 8, !tbaa !47
  br label %49

49:                                               ; preds = %45
  %50 = load i64, ptr %7, align 8, !tbaa !3
  %51 = add nsw i64 %50, 1
  store i64 %51, ptr %7, align 8, !tbaa !3
  br label %37

52:                                               ; preds = %37
  store i64 0, ptr %7, align 8, !tbaa !3
  br label %53

53:                                               ; preds = %95, %52
  %54 = load i64, ptr %7, align 8, !tbaa !3
  %55 = load ptr, ptr %4, align 8, !tbaa !12
  %56 = getelementptr inbounds nuw %struct._generic_SUNMatrix, ptr %55, i32 0, i32 0
  %57 = load ptr, ptr %56, align 8, !tbaa !29
  %58 = getelementptr inbounds nuw %struct._SUNMatrixContent_Sparse, ptr %57, i32 0, i32 0
  %59 = load i64, ptr %58, align 8, !tbaa !35
  %60 = icmp slt i64 %54, %59
  br i1 %60, label %61, label %98

61:                                               ; preds = %53
  %62 = load ptr, ptr %9, align 8, !tbaa !49
  %63 = load i64, ptr %7, align 8, !tbaa !3
  %64 = getelementptr inbounds i64, ptr %62, i64 %63
  %65 = load i64, ptr %64, align 8, !tbaa !3
  store i64 %65, ptr %8, align 8, !tbaa !3
  br label %66

66:                                               ; preds = %91, %61
  %67 = load i64, ptr %8, align 8, !tbaa !3
  %68 = load ptr, ptr %9, align 8, !tbaa !49
  %69 = load i64, ptr %7, align 8, !tbaa !3
  %70 = add nsw i64 %69, 1
  %71 = getelementptr inbounds i64, ptr %68, i64 %70
  %72 = load i64, ptr %71, align 8, !tbaa !3
  %73 = icmp slt i64 %67, %72
  br i1 %73, label %74, label %94

74:                                               ; preds = %66
  %75 = load ptr, ptr %11, align 8, !tbaa !50
  %76 = load i64, ptr %8, align 8, !tbaa !3
  %77 = getelementptr inbounds double, ptr %75, i64 %76
  %78 = load double, ptr %77, align 8, !tbaa !47
  %79 = load ptr, ptr %12, align 8, !tbaa !50
  %80 = load ptr, ptr %10, align 8, !tbaa !49
  %81 = load i64, ptr %8, align 8, !tbaa !3
  %82 = getelementptr inbounds i64, ptr %80, i64 %81
  %83 = load i64, ptr %82, align 8, !tbaa !3
  %84 = getelementptr inbounds double, ptr %79, i64 %83
  %85 = load double, ptr %84, align 8, !tbaa !47
  %86 = load ptr, ptr %13, align 8, !tbaa !50
  %87 = load i64, ptr %7, align 8, !tbaa !3
  %88 = getelementptr inbounds double, ptr %86, i64 %87
  %89 = load double, ptr %88, align 8, !tbaa !47
  %90 = call double @llvm.fmuladd.f64(double %78, double %85, double %89)
  store double %90, ptr %88, align 8, !tbaa !47
  br label %91

91:                                               ; preds = %74
  %92 = load i64, ptr %8, align 8, !tbaa !3
  %93 = add nsw i64 %92, 1
  store i64 %93, ptr %8, align 8, !tbaa !3
  br label %66

94:                                               ; preds = %66
  br label %95

95:                                               ; preds = %94
  %96 = load i64, ptr %7, align 8, !tbaa !3
  %97 = add nsw i64 %96, 1
  store i64 %97, ptr %7, align 8, !tbaa !3
  br label %53

98:                                               ; preds = %53
  call void @llvm.lifetime.end.p0(i64 8, ptr %14) #8
  call void @llvm.lifetime.end.p0(i64 8, ptr %13) #8
  call void @llvm.lifetime.end.p0(i64 8, ptr %12) #8
  call void @llvm.lifetime.end.p0(i64 8, ptr %11) #8
  call void @llvm.lifetime.end.p0(i64 8, ptr %10) #8
  call void @llvm.lifetime.end.p0(i64 8, ptr %9) #8
  call void @llvm.lifetime.end.p0(i64 8, ptr %8) #8
  call void @llvm.lifetime.end.p0(i64 8, ptr %7) #8
  ret i32 0
}

; Function Attrs: nounwind uwtable
define internal i32 @Matvec_SparseCSC(ptr noundef %0, ptr noundef %1, ptr noundef %2) #0 {
  %4 = alloca ptr, align 8
  %5 = alloca ptr, align 8
  %6 = alloca ptr, align 8
  %7 = alloca i64, align 8
  %8 = alloca i64, align 8
  %9 = alloca ptr, align 8
  %10 = alloca ptr, align 8
  %11 = alloca ptr, align 8
  %12 = alloca ptr, align 8
  %13 = alloca ptr, align 8
  %14 = alloca ptr, align 8
  store ptr %0, ptr %4, align 8, !tbaa !12
  store ptr %1, ptr %5, align 8, !tbaa !51
  store ptr %2, ptr %6, align 8, !tbaa !51
  call void @llvm.lifetime.start.p0(i64 8, ptr %7) #8
  call void @llvm.lifetime.start.p0(i64 8, ptr %8) #8
  call void @llvm.lifetime.start.p0(i64 8, ptr %9) #8
  call void @llvm.lifetime.start.p0(i64 8, ptr %10) #8
  call void @llvm.lifetime.start.p0(i64 8, ptr %11) #8
  call void @llvm.lifetime.start.p0(i64 8, ptr %12) #8
  call void @llvm.lifetime.start.p0(i64 8, ptr %13) #8
  call void @llvm.lifetime.start.p0(i64 8, ptr %14) #8
  %15 = load ptr, ptr %4, align 8, !tbaa !12
  %16 = getelementptr inbounds nuw %struct._generic_SUNMatrix, ptr %15, i32 0, i32 2
  %17 = load ptr, ptr %16, align 8, !tbaa !46
  store ptr %17, ptr %14, align 8, !tbaa !9
  %18 = load ptr, ptr %4, align 8, !tbaa !12
  %19 = getelementptr inbounds nuw %struct._generic_SUNMatrix, ptr %18, i32 0, i32 0
  %20 = load ptr, ptr %19, align 8, !tbaa !29
  %21 = getelementptr inbounds nuw %struct._SUNMatrixContent_Sparse, ptr %20, i32 0, i32 7
  %22 = load ptr, ptr %21, align 8, !tbaa !45
  store ptr %22, ptr %9, align 8, !tbaa !49
  %23 = load ptr, ptr %4, align 8, !tbaa !12
  %24 = getelementptr inbounds nuw %struct._generic_SUNMatrix, ptr %23, i32 0, i32 0
  %25 = load ptr, ptr %24, align 8, !tbaa !29
  %26 = getelementptr inbounds nuw %struct._SUNMatrixContent_Sparse, ptr %25, i32 0, i32 6
  %27 = load ptr, ptr %26, align 8, !tbaa !44
  store ptr %27, ptr %10, align 8, !tbaa !49
  %28 = load ptr, ptr %4, align 8, !tbaa !12
  %29 = getelementptr inbounds nuw %struct._generic_SUNMatrix, ptr %28, i32 0, i32 0
  %30 = load ptr, ptr %29, align 8, !tbaa !29
  %31 = getelementptr inbounds nuw %struct._SUNMatrixContent_Sparse, ptr %30, i32 0, i32 4
  %32 = load ptr, ptr %31, align 8, !tbaa !43
  store ptr %32, ptr %11, align 8, !tbaa !50
  %33 = load ptr, ptr %5, align 8, !tbaa !51
  %34 = call ptr @N_VGetArrayPointer(ptr noundef %33)
  store ptr %34, ptr %12, align 8, !tbaa !50
  %35 = load ptr, ptr %6, align 8, !tbaa !51
  %36 = call ptr @N_VGetArrayPointer(ptr noundef %35)
  store ptr %36, ptr %13, align 8, !tbaa !50
  store i64 0, ptr %7, align 8, !tbaa !3
  br label %37

37:                                               ; preds = %49, %3
  %38 = load i64, ptr %7, align 8, !tbaa !3
  %39 = load ptr, ptr %4, align 8, !tbaa !12
  %40 = getelementptr inbounds nuw %struct._generic_SUNMatrix, ptr %39, i32 0, i32 0
  %41 = load ptr, ptr %40, align 8, !tbaa !29
  %42 = getelementptr inbounds nuw %struct._SUNMatrixContent_Sparse, ptr %41, i32 0, i32 0
  %43 = load i64, ptr %42, align 8, !tbaa !35
  %44 = icmp slt i64 %38, %43
  br i1 %44, label %45, label %52

45:                                               ; preds = %37
  %46 = load ptr, ptr %13, align 8, !tbaa !50
  %47 = load i64, ptr %7, align 8, !tbaa !3
  %48 = getelementptr inbounds double, ptr %46, i64 %47
  store double 0.000000e+00, ptr %48, align 8, !tbaa !47
  br label %49

49:                                               ; preds = %45
  %50 = load i64, ptr %7, align 8, !tbaa !3
  %51 = add nsw i64 %50, 1
  store i64 %51, ptr %7, align 8, !tbaa !3
  br label %37

52:                                               ; preds = %37
  store i64 0, ptr %8, align 8, !tbaa !3
  br label %53

53:                                               ; preds = %95, %52
  %54 = load i64, ptr %8, align 8, !tbaa !3
  %55 = load ptr, ptr %4, align 8, !tbaa !12
  %56 = getelementptr inbounds nuw %struct._generic_SUNMatrix, ptr %55, i32 0, i32 0
  %57 = load ptr, ptr %56, align 8, !tbaa !29
  %58 = getelementptr inbounds nuw %struct._SUNMatrixContent_Sparse, ptr %57, i32 0, i32 1
  %59 = load i64, ptr %58, align 8, !tbaa !36
  %60 = icmp slt i64 %54, %59
  br i1 %60, label %61, label %98

61:                                               ; preds = %53
  %62 = load ptr, ptr %9, align 8, !tbaa !49
  %63 = load i64, ptr %8, align 8, !tbaa !3
  %64 = getelementptr inbounds i64, ptr %62, i64 %63
  %65 = load i64, ptr %64, align 8, !tbaa !3
  store i64 %65, ptr %7, align 8, !tbaa !3
  br label %66

66:                                               ; preds = %91, %61
  %67 = load i64, ptr %7, align 8, !tbaa !3
  %68 = load ptr, ptr %9, align 8, !tbaa !49
  %69 = load i64, ptr %8, align 8, !tbaa !3
  %70 = add nsw i64 %69, 1
  %71 = getelementptr inbounds i64, ptr %68, i64 %70
  %72 = load i64, ptr %71, align 8, !tbaa !3
  %73 = icmp slt i64 %67, %72
  br i1 %73, label %74, label %94

74:                                               ; preds = %66
  %75 = load ptr, ptr %11, align 8, !tbaa !50
  %76 = load i64, ptr %7, align 8, !tbaa !3
  %77 = getelementptr inbounds double, ptr %75, i64 %76
  %78 = load double, ptr %77, align 8, !tbaa !47
  %79 = load ptr, ptr %12, align 8, !tbaa !50
  %80 = load i64, ptr %8, align 8, !tbaa !3
  %81 = getelementptr inbounds double, ptr %79, i64 %80
  %82 = load double, ptr %81, align 8, !tbaa !47
  %83 = load ptr, ptr %13, align 8, !tbaa !50
  %84 = load ptr, ptr %10, align 8, !tbaa !49
  %85 = load i64, ptr %7, align 8, !tbaa !3
  %86 = getelementptr inbounds i64, ptr %84, i64 %85
  %87 = load i64, ptr %86, align 8, !tbaa !3
  %88 = getelementptr inbounds double, ptr %83, i64 %87
  %89 = load double, ptr %88, align 8, !tbaa !47
  %90 = call double @llvm.fmuladd.f64(double %78, double %82, double %89)
  store double %90, ptr %88, align 8, !tbaa !47
  br label %91

91:                                               ; preds = %74
  %92 = load i64, ptr %7, align 8, !tbaa !3
  %93 = add nsw i64 %92, 1
  store i64 %93, ptr %7, align 8, !tbaa !3
  br label %66

94:                                               ; preds = %66
  br label %95

95:                                               ; preds = %94
  %96 = load i64, ptr %8, align 8, !tbaa !3
  %97 = add nsw i64 %96, 1
  store i64 %97, ptr %8, align 8, !tbaa !3
  br label %53

98:                                               ; preds = %53
  call void @llvm.lifetime.end.p0(i64 8, ptr %14) #8
  call void @llvm.lifetime.end.p0(i64 8, ptr %13) #8
  call void @llvm.lifetime.end.p0(i64 8, ptr %12) #8
  call void @llvm.lifetime.end.p0(i64 8, ptr %11) #8
  call void @llvm.lifetime.end.p0(i64 8, ptr %10) #8
  call void @llvm.lifetime.end.p0(i64 8, ptr %9) #8
  call void @llvm.lifetime.end.p0(i64 8, ptr %8) #8
  call void @llvm.lifetime.end.p0(i64 8, ptr %7) #8
  ret i32 0
}

; Function Attrs: nounwind uwtable
define i32 @SUNMatMatvec_Sparse(ptr noundef %0, ptr noundef %1, ptr noundef %2) #0 {
  %4 = alloca ptr, align 8
  %5 = alloca ptr, align 8
  %6 = alloca ptr, align 8
  %7 = alloca ptr, align 8
  store ptr %0, ptr %4, align 8, !tbaa !12
  store ptr %1, ptr %5, align 8, !tbaa !51
  store ptr %2, ptr %6, align 8, !tbaa !51
  call void @llvm.lifetime.start.p0(i64 8, ptr %7) #8
  %8 = load ptr, ptr %4, align 8, !tbaa !12
  %9 = getelementptr inbounds nuw %struct._generic_SUNMatrix, ptr %8, i32 0, i32 2
  %10 = load ptr, ptr %9, align 8, !tbaa !46
  store ptr %10, ptr %7, align 8, !tbaa !9
  %11 = load ptr, ptr %4, align 8, !tbaa !12
  %12 = getelementptr inbounds nuw %struct._generic_SUNMatrix, ptr %11, i32 0, i32 0
  %13 = load ptr, ptr %12, align 8, !tbaa !29
  %14 = getelementptr inbounds nuw %struct._SUNMatrixContent_Sparse, ptr %13, i32 0, i32 5
  %15 = load i32, ptr %14, align 8, !tbaa !30
  %16 = icmp eq i32 %15, 0
  br i1 %16, label %17, label %22

17:                                               ; preds = %3
  %18 = load ptr, ptr %4, align 8, !tbaa !12
  %19 = load ptr, ptr %5, align 8, !tbaa !51
  %20 = load ptr, ptr %6, align 8, !tbaa !51
  %21 = call i32 @Matvec_SparseCSC(ptr noundef %18, ptr noundef %19, ptr noundef %20)
  br label %27

22:                                               ; preds = %3
  %23 = load ptr, ptr %4, align 8, !tbaa !12
  %24 = load ptr, ptr %5, align 8, !tbaa !51
  %25 = load ptr, ptr %6, align 8, !tbaa !51
  %26 = call i32 @Matvec_SparseCSR(ptr noundef %23, ptr noundef %24, ptr noundef %25)
  br label %27

27:                                               ; preds = %22, %17
  call void @llvm.lifetime.end.p0(i64 8, ptr %7) #8
  ret i32 0
}