; Function Attrs: nounwind uwtable
define noundef i32 @SUNMatMatvec_Sparse(ptr noundef readonly captures(none) %0, ptr noundef %1, ptr noundef %2) #0 {
  %4 = load ptr, ptr %0, align 8, !tbaa !20
  %5 = getelementptr inbounds nuw i8, ptr %4, i64 40
  %6 = load i32, ptr %5, align 8, !tbaa !21
  %7 = icmp eq i32 %6, 0
  %8 = getelementptr inbounds nuw i8, ptr %4, i64 56
  %9 = load ptr, ptr %8, align 8, !tbaa !35
  %10 = getelementptr inbounds nuw i8, ptr %4, i64 48
  %11 = load ptr, ptr %10, align 8, !tbaa !34
  %12 = getelementptr inbounds nuw i8, ptr %4, i64 32
  %13 = load ptr, ptr %12, align 8, !tbaa !33
  %14 = tail call ptr @N_VGetArrayPointer(ptr noundef %1) #17
  %15 = tail call ptr @N_VGetArrayPointer(ptr noundef %2) #17
  %16 = load ptr, ptr %0, align 8, !tbaa !20
  %17 = load i64, ptr %16, align 8, !tbaa !28
  %18 = icmp sgt i64 %17, 0
  br i1 %7, label %19, label %40

19:                                               ; preds = %3
  br i1 %18, label %.lr.ph.preheader.i, label %.preheader.i

.lr.ph.preheader.i:                               ; preds = %19
  %20 = shl nuw i64 %17, 3
  tail call void @llvm.memset.p0.i64(ptr align 8 %15, i8 0, i64 %20, i1 false), !tbaa !41
  br label %.preheader.i

.preheader.i:                                     ; preds = %.lr.ph.preheader.i, %19
  %21 = getelementptr inbounds nuw i8, ptr %16, i64 8
  %22 = load i64, ptr %21, align 8, !tbaa !29
  %23 = icmp sgt i64 %22, 0
  br i1 %23, label %.lr.ph33.preheader.i, label %Matvec_SparseCSC.exit

.lr.ph33.preheader.i:                             ; preds = %.preheader.i
  %.pre.i = load i64, ptr %9, align 8, !tbaa !43
  br label %.lr.ph33.i

.loopexit.i:                                      ; preds = %30, %.lr.ph33.i
  %exitcond34.not.i = icmp eq i64 %25, %22
  br i1 %exitcond34.not.i, label %Matvec_SparseCSC.exit, label %.lr.ph33.i

.lr.ph33.i:                                       ; preds = %.loopexit.i, %.lr.ph33.preheader.i
  %24 = phi i64 [ %27, %.loopexit.i ], [ %.pre.i, %.lr.ph33.preheader.i ]
  %.02632.i = phi i64 [ %25, %.loopexit.i ], [ 0, %.lr.ph33.preheader.i ]
  %25 = add nuw nsw i64 %.02632.i, 1
  %26 = getelementptr inbounds nuw i64, ptr %9, i64 %25
  %27 = load i64, ptr %26, align 8, !tbaa !43
  %28 = icmp slt i64 %24, %27
  br i1 %28, label %.lr.ph30.i, label %.loopexit.i

.lr.ph30.i:                                       ; preds = %.lr.ph33.i
  %29 = getelementptr inbounds nuw double, ptr %14, i64 %.02632.i
  br label %30

30:                                               ; preds = %30, %.lr.ph30.i
  %.129.i = phi i64 [ %24, %.lr.ph30.i ], [ %39, %30 ]
  %31 = getelementptr inbounds double, ptr %13, i64 %.129.i
  %32 = load double, ptr %31, align 8, !tbaa !41
  %33 = load double, ptr %29, align 8, !tbaa !41
  %34 = getelementptr inbounds i64, ptr %11, i64 %.129.i
  %35 = load i64, ptr %34, align 8, !tbaa !43
  %36 = getelementptr inbounds double, ptr %15, i64 %35
  %37 = load double, ptr %36, align 8, !tbaa !41
  %38 = tail call double @llvm.fmuladd.f64(double %32, double %33, double %37)
  store double %38, ptr %36, align 8, !tbaa !41
  %39 = add nsw i64 %.129.i, 1
  %exitcond.not.i = icmp eq i64 %39, %27
  br i1 %exitcond.not.i, label %.loopexit.i, label %30

40:                                               ; preds = %3
  br i1 %18, label %.lr.ph33.preheader.i8, label %Matvec_SparseCSC.exit

.lr.ph33.preheader.i8:                            ; preds = %40
  %41 = shl nuw i64 %17, 3
  tail call void @llvm.memset.p0.i64(ptr align 8 %15, i8 0, i64 %41, i1 false), !tbaa !41
  %.pre.i9 = load i64, ptr %9, align 8, !tbaa !43
  br label %.lr.ph33.i10

.loopexit.i11:                                    ; preds = %48, %.lr.ph33.i10
  %exitcond34.not.i12 = icmp eq i64 %43, %17
  br i1 %exitcond34.not.i12, label %Matvec_SparseCSC.exit, label %.lr.ph33.i10

.lr.ph33.i10:                                     ; preds = %.loopexit.i11, %.lr.ph33.preheader.i8
  %42 = phi i64 [ %45, %.loopexit.i11 ], [ %.pre.i9, %.lr.ph33.preheader.i8 ]
  %.132.i = phi i64 [ %43, %.loopexit.i11 ], [ 0, %.lr.ph33.preheader.i8 ]
  %43 = add nuw nsw i64 %.132.i, 1
  %44 = getelementptr inbounds nuw i64, ptr %9, i64 %43
  %45 = load i64, ptr %44, align 8, !tbaa !43
  %46 = icmp slt i64 %42, %45
  br i1 %46, label %.lr.ph30.i13, label %.loopexit.i11

.lr.ph30.i13:                                     ; preds = %.lr.ph33.i10
  %47 = getelementptr inbounds nuw double, ptr %15, i64 %.132.i
  %.promoted.i = load double, ptr %47, align 8, !tbaa !41
  br label %48

48:                                               ; preds = %48, %.lr.ph30.i13
  %49 = phi double [ %.promoted.i, %.lr.ph30.i13 ], [ %56, %48 ]
  %.02629.i = phi i64 [ %42, %.lr.ph30.i13 ], [ %57, %48 ]
  %50 = getelementptr inbounds double, ptr %13, i64 %.02629.i
  %51 = load double, ptr %50, align 8, !tbaa !41
  %52 = getelementptr inbounds i64, ptr %11, i64 %.02629.i
  %53 = load i64, ptr %52, align 8, !tbaa !43
  %54 = getelementptr inbounds double, ptr %14, i64 %53
  %55 = load double, ptr %54, align 8, !tbaa !41
  %56 = tail call double @llvm.fmuladd.f64(double %51, double %55, double %49)
  store double %56, ptr %47, align 8, !tbaa !41
  %57 = add nsw i64 %.02629.i, 1
  %exitcond.not.i14 = icmp eq i64 %57, %45
  br i1 %exitcond.not.i14, label %.loopexit.i11, label %48

Matvec_SparseCSC.exit:                            ; preds = %.loopexit.i11, %.loopexit.i, %40, %.preheader.i
  ret i32 0
}